; Function Attrs: cold nounwind optsize uwtable
define range(i32 -2147483648, 1) i32 @ff_msmpeg4_decode_init(ptr noundef %0) #0 {
  %2 = getelementptr inbounds nuw i8, ptr %0, i64 32
  %3 = load ptr, ptr %2, align 8, !tbaa !4
  %4 = getelementptr inbounds nuw i8, ptr %0, i64 112
  %5 = load i32, ptr %4, align 8, !tbaa !27
  %6 = getelementptr inbounds nuw i8, ptr %0, i64 116
  %7 = load i32, ptr %6, align 4, !tbaa !28
  %8 = tail call i32 @av_image_check_size(i32 noundef %5, i32 noundef %7, i32 noundef 0, ptr noundef %0) #9
  %9 = icmp slt i32 %8, 0
  br i1 %9, label %24, label %10

10:                                               ; preds = %1
  %11 = tail call i32 @ff_h263_decode_init(ptr noundef nonnull %0) #9
  %12 = icmp slt i32 %11, 0
  br i1 %12, label %24, label %13

13:                                               ; preds = %10
  tail call void @ff_msmpeg4_common_init(ptr noundef %3) #9
  %14 = getelementptr inbounds nuw i8, ptr %3, i64 4148
  %15 = load i32, ptr %14, align 4, !tbaa !29
  %switch.tableidx = add i32 %15, -1
  %16 = icmp ult i32 %switch.tableidx, 4
  br i1 %16, label %switch.lookup, label %19

switch.lookup:                                    ; preds = %13
  %17 = zext nneg i32 %switch.tableidx to i64
  %switch.gep = getelementptr inbounds nuw [4 x ptr], ptr @switch.table.ff_msmpeg4_decode_init, i64 0, i64 %17
  %switch.load = load ptr, ptr %switch.gep, align 8
  %18 = getelementptr inbounds nuw i8, ptr %3, i64 4304
  store ptr %switch.load, ptr %18, align 8, !tbaa !52
  br label %19

19:                                               ; preds = %13, %switch.lookup
  %20 = getelementptr inbounds nuw i8, ptr %3, i64 544
  %21 = load i32, ptr %20, align 8, !tbaa !53
  %22 = getelementptr inbounds nuw i8, ptr %3, i64 4136
  store i32 %21, ptr %22, align 8, !tbaa !54
  %23 = tail call i32 @pthread_once(ptr noundef nonnull @ff_msmpeg4_decode_init.init_static_once, ptr noundef nonnull @msmpeg4_decode_init_static) #9
  br label %24

24:                                               ; preds = %10, %1, %19
  %.0 = phi i32 [ 0, %19 ], [ %8, %1 ], [ -1, %10 ]
  ret i32 %.0
}